target datalayout = "e-m:e-p270:32:32-p271:32:32-p272:64:64-i64:64-i128:128-f80:128-n8:16:32:64-S128"
target triple = "x86_64-pc-linux-gnu"

%struct.estats = type { i32, ptr }
%struct.GVertex = type { %struct._GtsVertex, i32 }
%struct._GtsVertex = type { %struct._GtsPoint, ptr }
%struct._GtsPoint = type { %struct._GtsObject, double, double, double }
%struct._GtsObject = type { ptr, ptr, i32 }
%struct._GtsSegment = type { %struct._GtsObject, ptr, ptr }
%struct.v_data = type { i32, ptr, ptr }

; Function Attrs: nounwind uwtable
define internal i32 @cnt_edge(ptr noundef %0, ptr noundef %1) #0 {
  %3 = alloca ptr, align 8
  %4 = alloca ptr, align 8
  %5 = alloca ptr, align 8
  %6 = alloca ptr, align 8
  store ptr %0, ptr %3, align 8, !tbaa !25
  store ptr %1, ptr %4, align 8, !tbaa !25
  call void @llvm.lifetime.start.p0(i64 8, ptr %5) #12
  %7 = load ptr, ptr %3, align 8, !tbaa !25
  store ptr %7, ptr %5, align 8, !tbaa !60
  call void @llvm.lifetime.start.p0(i64 8, ptr %6) #12
  %8 = load ptr, ptr %4, align 8, !tbaa !25
  store ptr %8, ptr %6, align 8, !tbaa !25
  %9 = load ptr, ptr %6, align 8, !tbaa !25
  %10 = getelementptr inbounds nuw %struct.estats, ptr %9, i32 0, i32 0
  %11 = load i32, ptr %10, align 8, !tbaa !14
  %12 = add nsw i32 %11, 1
  store i32 %12, ptr %10, align 8, !tbaa !14
  %13 = load ptr, ptr %6, align 8, !tbaa !25
  %14 = getelementptr inbounds nuw %struct.estats, ptr %13, i32 0, i32 1
  %15 = load ptr, ptr %14, align 8, !tbaa !16
  %16 = icmp ne ptr %15, null
  br i1 %16, label %17, label %44

17:                                               ; preds = %2
  %18 = load ptr, ptr %6, align 8, !tbaa !25
  %19 = getelementptr inbounds nuw %struct.estats, ptr %18, i32 0, i32 1
  %20 = load ptr, ptr %19, align 8, !tbaa !16
  %21 = load ptr, ptr %5, align 8, !tbaa !60
  %22 = getelementptr inbounds nuw %struct._GtsSegment, ptr %21, i32 0, i32 1
  %23 = load ptr, ptr %22, align 8, !tbaa !62
  %24 = getelementptr inbounds nuw %struct.GVertex, ptr %23, i32 0, i32 1
  %25 = load i32, ptr %24, align 8, !tbaa !34
  %26 = sext i32 %25 to i64
  %27 = getelementptr inbounds %struct.v_data, ptr %20, i64 %26
  %28 = getelementptr inbounds nuw %struct.v_data, ptr %27, i32 0, i32 0
  %29 = load i32, ptr %28, align 8, !tbaa !82
  %30 = add nsw i32 %29, 1
  store i32 %30, ptr %28, align 8, !tbaa !82
  %31 = load ptr, ptr %6, align 8, !tbaa !25
  %32 = getelementptr inbounds nuw %struct.estats, ptr %31, i32 0, i32 1
  %33 = load ptr, ptr %32, align 8, !tbaa !16
  %34 = load ptr, ptr %5, align 8, !tbaa !60
  %35 = getelementptr inbounds nuw %struct._GtsSegment, ptr %34, i32 0, i32 2
  %36 = load ptr, ptr %35, align 8, !tbaa !64
  %37 = getelementptr inbounds nuw %struct.GVertex, ptr %36, i32 0, i32 1
  %38 = load i32, ptr %37, align 8, !tbaa !34
  %39 = sext i32 %38 to i64
  %40 = getelementptr inbounds %struct.v_data, ptr %33, i64 %39
  %41 = getelementptr inbounds nuw %struct.v_data, ptr %40, i32 0, i32 0
  %42 = load i32, ptr %41, align 8, !tbaa !82
  %43 = add nsw i32 %42, 1
  store i32 %43, ptr %41, align 8, !tbaa !82
  br label %44

44:                                               ; preds = %17, %2
  call void @llvm.lifetime.end.p0(i64 8, ptr %6) #12
  call void @llvm.lifetime.end.p0(i64 8, ptr %5) #12
  ret i32 0
}