; Function Attrs: mustprogress nofree norecurse nosync nounwind willreturn memory(readwrite, inaccessiblemem: none) uwtable
define internal noundef i32 @cnt_edge(ptr noundef readonly captures(none) %0, ptr noundef captures(none) %1) #3 {
  %3 = load i32, ptr %1, align 8, !tbaa !3
  %4 = add nsw i32 %3, 1
  store i32 %4, ptr %1, align 8, !tbaa !3
  %5 = getelementptr inbounds nuw i8, ptr %1, i64 8
  %6 = load ptr, ptr %5, align 8, !tbaa !9
  %.not = icmp eq ptr %6, null
  br i1 %.not, label %24, label %7

7:                                                ; preds = %2
  %8 = getelementptr inbounds nuw i8, ptr %0, i64 24
  %9 = load ptr, ptr %8, align 8, !tbaa !50
  %10 = getelementptr inbounds nuw i8, ptr %9, i64 56
  %11 = load i32, ptr %10, align 8, !tbaa !23
  %12 = sext i32 %11 to i64
  %13 = getelementptr inbounds %struct.v_data, ptr %6, i64 %12
  %14 = load i32, ptr %13, align 8, !tbaa !69
  %15 = add nsw i32 %14, 1
  store i32 %15, ptr %13, align 8, !tbaa !69
  %16 = getelementptr inbounds nuw i8, ptr %0, i64 32
  %17 = load ptr, ptr %16, align 8, !tbaa !52
  %18 = getelementptr inbounds nuw i8, ptr %17, i64 56
  %19 = load i32, ptr %18, align 8, !tbaa !23
  %20 = sext i32 %19 to i64
  %21 = getelementptr inbounds %struct.v_data, ptr %6, i64 %20
  %22 = load i32, ptr %21, align 8, !tbaa !69
  %23 = add nsw i32 %22, 1
  store i32 %23, ptr %21, align 8, !tbaa !69
  br label %24

24:                                               ; preds = %7, %2
  ret i32 0
}